; Function Attrs: mustprogress uwtable
define noundef double @_ZNK8QuantLib8CapFloor7atmRateERKNS_18YieldTermStructureE(ptr noundef nonnull align 8 dereferenceable(184) %this, ptr noundef nonnull align 8 dereferenceable(152) %discountCurve) local_unnamed_addr #8 align 2 {
entry:
  %agg.tmp2 = alloca %"class.QuantLib::Date", align 8
  %vtable = load ptr, ptr %discountCurve, align 8, !tbaa !33
  %vfn = getelementptr inbounds i8, ptr %vtable, i64 40
  %0 = load ptr, ptr %vfn, align 8
  %call = tail call noundef nonnull align 8 dereferenceable(8) ptr %0(ptr noundef nonnull align 8 dereferenceable(64) %discountCurve)
  %settlementDate.sroa.0.0.copyload = load i64, ptr %call, align 8, !tbaa !37
  %floatingLeg_ = getelementptr inbounds nuw i8, ptr %this, i64 112
  call void @_ZN8QuantLib4DateC1Ev(ptr noundef nonnull align 8 dereferenceable(8) %agg.tmp2)
  %1 = load i64, ptr %agg.tmp2, align 8
  %call5 = call noundef double @_ZN8QuantLib9CashFlows7atmRateERKSt6vectorIN5boost10shared_ptrINS_8CashFlowEEESaIS5_EERKNS_18YieldTermStructureEbNS_4DateESD_d(ptr noundef nonnull align 8 dereferenceable(24) %floatingLeg_, ptr noundef nonnull align 8 dereferenceable(152) %discountCurve, i1 noundef zeroext false, i64 %settlementDate.sroa.0.0.copyload, i64 %1, double noundef 0x47EFFFFFE0000000)
  ret double %call5
}